target datalayout = "e-m:e-p270:32:32-p271:32:32-p272:64:64-i64:64-i128:128-f80:128-n8:16:32:64-S128"
target triple = "x86_64-pc-linux-gnu"

; Function Attrs: mustprogress uwtable
define void @_ZN3nix6SourceclEPcm(ptr noundef nonnull align 8 dereferenceable(8) %0, ptr noundef %1, i64 noundef %2) #3 align 2 {
  %4 = alloca ptr, align 8
  %5 = alloca ptr, align 8
  %6 = alloca i64, align 8
  %7 = alloca i64, align 8
  store ptr %0, ptr %4, align 8
  store ptr %1, ptr %5, align 8
  store i64 %2, ptr %6, align 8
  %8 = load ptr, ptr %4, align 8
  br label %9

9:                                                ; preds = %12, %3
  %10 = load i64, ptr %6, align 8
  %11 = icmp ne i64 %10, 0
  br i1 %11, label %12, label %25

12:                                               ; preds = %9
  %13 = load ptr, ptr %5, align 8
  %14 = load i64, ptr %6, align 8
  %15 = load ptr, ptr %8, align 8
  %16 = getelementptr inbounds ptr, ptr %15, i64 2
  %17 = load ptr, ptr %16, align 8
  %18 = call noundef i64 %17(ptr noundef nonnull align 8 dereferenceable(8) %8, ptr noundef %13, i64 noundef %14)
  store i64 %18, ptr %7, align 8
  %19 = load i64, ptr %7, align 8
  %20 = load ptr, ptr %5, align 8
  %21 = getelementptr inbounds i8, ptr %20, i64 %19
  store ptr %21, ptr %5, align 8
  %22 = load i64, ptr %7, align 8
  %23 = load i64, ptr %6, align 8
  %24 = sub i64 %23, %22
  store i64 %24, ptr %6, align 8
  br label %9, !llvm.loop !8

25:                                               ; preds = %9
  ret void
}