; Function Attrs: mustprogress uwtable
define void @_ZN3nix6SourceclEPcm(ptr noundef nonnull align 8 dereferenceable(8) %0, ptr noundef %1, i64 noundef %2) local_unnamed_addr #2 align 2 {
  %.not8 = icmp eq i64 %2, 0
  br i1 %.not8, label %._crit_edge, label %.lr.ph

.lr.ph:                                           ; preds = %3, %.lr.ph
  %.010 = phi ptr [ %8, %.lr.ph ], [ %1, %3 ]
  %.079 = phi i64 [ %9, %.lr.ph ], [ %2, %3 ]
  %4 = load ptr, ptr %0, align 8
  %5 = getelementptr inbounds i8, ptr %4, i64 16
  %6 = load ptr, ptr %5, align 8
  %7 = tail call noundef i64 %6(ptr noundef nonnull align 8 dereferenceable(8) %0, ptr noundef %.010, i64 noundef %.079)
  %8 = getelementptr inbounds i8, ptr %.010, i64 %7
  %9 = sub i64 %.079, %7
  %.not = icmp eq i64 %9, 0
  br i1 %.not, label %._crit_edge, label %.lr.ph, !llvm.loop !4

._crit_edge:                                      ; preds = %.lr.ph, %3
  ret void
}